target datalayout = "e-m:e-p270:32:32-p271:32:32-p272:64:64-i64:64-i128:128-f80:128-n8:16:32:64-S128"
target triple = "x86_64-pc-linux-gnu"

; Function Attrs: nounwind uwtable
define internal i32 @padlock_ecb_cipher(ptr noundef %0, ptr noundef %1, ptr noundef %2, i64 noundef %3) #0 {
  %5 = alloca ptr, align 8
  %6 = alloca ptr, align 8
  %7 = alloca ptr, align 8
  %8 = alloca i64, align 8
  store ptr %0, ptr %5, align 8, !tbaa !30
  store ptr %1, ptr %6, align 8, !tbaa !10
  store ptr %2, ptr %7, align 8, !tbaa !10
  store i64 %3, ptr %8, align 8, !tbaa !3
  %9 = load ptr, ptr %6, align 8, !tbaa !10
  %10 = load ptr, ptr %7, align 8, !tbaa !10
  %11 = load ptr, ptr %5, align 8, !tbaa !30
  %12 = call ptr @EVP_CIPHER_CTX_get_cipher_data(ptr noundef %11)
  %13 = load ptr, ptr %5, align 8, !tbaa !30
  %14 = call ptr @EVP_CIPHER_CTX_get_cipher_data(ptr noundef %13)
  %15 = ptrtoint ptr %14 to i64
  %16 = and i64 %15, 15
  %17 = sub i64 16, %16
  %18 = and i64 %17, 15
  %19 = getelementptr inbounds nuw i8, ptr %12, i64 %18
  %20 = load i64, ptr %8, align 8, !tbaa !3
  %21 = call i32 @padlock_ecb_encrypt(ptr noundef %9, ptr noundef %10, ptr noundef %19, i64 noundef %20)
  ret i32 %21
}