; Function Attrs: nounwind uwtable
define internal i32 @padlock_ecb_cipher(ptr noundef %0, ptr noundef %1, ptr noundef %2, i64 noundef %3) #1 {
  %5 = tail call ptr @EVP_CIPHER_CTX_get_cipher_data(ptr noundef %0) #10
  %6 = tail call ptr @EVP_CIPHER_CTX_get_cipher_data(ptr noundef %0) #10
  %7 = ptrtoint ptr %6 to i64
  %8 = sub i64 0, %7
  %9 = and i64 %8, 15
  %10 = getelementptr inbounds nuw i8, ptr %5, i64 %9
  %11 = tail call i32 @padlock_ecb_encrypt(ptr noundef %1, ptr noundef %2, ptr noundef %10, i64 noundef %3) #10
  ret i32 %11
}